target datalayout = "e-m:e-p270:32:32-p271:32:32-p272:64:64-i64:64-i128:128-f80:128-n8:16:32:64-S128"
target triple = "x86_64-pc-linux-gnu"

%struct._snmp_ue_assoc_t = type { %struct._snmp_user_t, %struct.snmp_engine_id_t, i32, i32, ptr }
%struct._snmp_user_t = type { %struct._snmp_usm_key, i32, %struct._snmp_usm_key, %struct._snmp_usm_key, ptr, %struct._snmp_usm_key, %struct._snmp_usm_key }
%struct._snmp_usm_key = type { ptr, i32 }
%struct.snmp_engine_id_t = type { ptr, i32 }

@free_ue_cache.a = internal global ptr null, align 8
@free_ue_cache.nxt = internal global ptr null, align 8

; Function Attrs: nounwind uwtable
define internal void @snmp_users_free_cb(ptr noundef %0) #0 {
  %2 = alloca ptr, align 8
  %3 = alloca ptr, align 8
  store ptr %0, ptr %2, align 8
  %4 = load ptr, ptr %2, align 8
  store ptr %4, ptr %3, align 8
  %5 = load ptr, ptr %3, align 8
  %6 = getelementptr inbounds %struct._snmp_ue_assoc_t, ptr %5, i32 0, i32 0
  %7 = getelementptr inbounds %struct._snmp_user_t, ptr %6, i32 0, i32 0
  %8 = getelementptr inbounds %struct._snmp_usm_key, ptr %7, i32 0, i32 0
  %9 = load ptr, ptr %8, align 8
  call void @g_free(ptr noundef %9)
  %10 = load ptr, ptr %3, align 8
  %11 = getelementptr inbounds %struct._snmp_ue_assoc_t, ptr %10, i32 0, i32 0
  %12 = getelementptr inbounds %struct._snmp_user_t, ptr %11, i32 0, i32 2
  %13 = getelementptr inbounds %struct._snmp_usm_key, ptr %12, i32 0, i32 0
  %14 = load ptr, ptr %13, align 8
  call void @g_free(ptr noundef %14)
  %15 = load ptr, ptr %3, align 8
  %16 = getelementptr inbounds %struct._snmp_ue_assoc_t, ptr %15, i32 0, i32 0
  %17 = getelementptr inbounds %struct._snmp_user_t, ptr %16, i32 0, i32 5
  %18 = getelementptr inbounds %struct._snmp_usm_key, ptr %17, i32 0, i32 0
  %19 = load ptr, ptr %18, align 8
  call void @g_free(ptr noundef %19)
  %20 = load ptr, ptr %3, align 8
  %21 = getelementptr inbounds %struct._snmp_ue_assoc_t, ptr %20, i32 0, i32 0
  %22 = getelementptr inbounds %struct._snmp_user_t, ptr %21, i32 0, i32 3
  %23 = getelementptr inbounds %struct._snmp_usm_key, ptr %22, i32 0, i32 0
  %24 = load ptr, ptr %23, align 8
  call void @g_free(ptr noundef %24)
  %25 = load ptr, ptr %3, align 8
  %26 = getelementptr inbounds %struct._snmp_ue_assoc_t, ptr %25, i32 0, i32 0
  %27 = getelementptr inbounds %struct._snmp_user_t, ptr %26, i32 0, i32 6
  %28 = getelementptr inbounds %struct._snmp_usm_key, ptr %27, i32 0, i32 0
  %29 = load ptr, ptr %28, align 8
  call void @g_free(ptr noundef %29)
  %30 = load ptr, ptr %3, align 8
  %31 = getelementptr inbounds %struct._snmp_ue_assoc_t, ptr %30, i32 0, i32 1
  %32 = getelementptr inbounds %struct.snmp_engine_id_t, ptr %31, i32 0, i32 0
  %33 = load ptr, ptr %32, align 8
  call void @g_free(ptr noundef %33)
  ret void
}

; Function Attrs: nounwind uwtable
define internal void @free_ue_cache(ptr noundef %0) #0 {
  %2 = alloca ptr, align 8
  store ptr %0, ptr %2, align 8
  %3 = load ptr, ptr %2, align 8
  %4 = load ptr, ptr %3, align 8
  store ptr %4, ptr @free_ue_cache.a, align 8
  br label %5

5:                                                ; preds = %14, %1
  %6 = load ptr, ptr @free_ue_cache.a, align 8
  %7 = icmp ne ptr %6, null
  br i1 %7, label %8, label %16

8:                                                ; preds = %5
  %9 = load ptr, ptr @free_ue_cache.a, align 8
  %10 = getelementptr inbounds %struct._snmp_ue_assoc_t, ptr %9, i32 0, i32 4
  %11 = load ptr, ptr %10, align 8
  store ptr %11, ptr @free_ue_cache.nxt, align 8
  %12 = load ptr, ptr @free_ue_cache.a, align 8
  call void @snmp_users_free_cb(ptr noundef %12)
  %13 = load ptr, ptr @free_ue_cache.a, align 8
  call void @g_free(ptr noundef %13)
  br label %14

14:                                               ; preds = %8
  %15 = load ptr, ptr @free_ue_cache.nxt, align 8
  store ptr %15, ptr @free_ue_cache.a, align 8
  br label %5, !llvm.loop !25

16:                                               ; preds = %5
  %17 = load ptr, ptr %2, align 8
  store ptr null, ptr %17, align 8
  ret void
}