; Function Attrs: nounwind uwtable
define internal fastcc void @free_ue_cache(ptr noundef captures(none) %0) unnamed_addr #0 {
  %storemerge2 = load ptr, ptr %0, align 8
  store ptr %storemerge2, ptr @free_ue_cache.a, align 8
  %.not3 = icmp eq ptr %storemerge2, null
  br i1 %.not3, label %._crit_edge, label %.lr.ph

.lr.ph:                                           ; preds = %1, %.lr.ph
  %storemerge4 = phi ptr [ %storemerge, %.lr.ph ], [ %storemerge2, %1 ]
  %2 = getelementptr inbounds nuw i8, ptr %storemerge4, i64 120
  %3 = load ptr, ptr %2, align 8
  store ptr %3, ptr @free_ue_cache.nxt, align 8
  %4 = load ptr, ptr %storemerge4, align 8
  tail call void @g_free(ptr noundef %4) #11
  %5 = getelementptr inbounds nuw i8, ptr %storemerge4, i64 24
  %6 = load ptr, ptr %5, align 8
  tail call void @g_free(ptr noundef %6) #11
  %7 = getelementptr inbounds nuw i8, ptr %storemerge4, i64 64
  %8 = load ptr, ptr %7, align 8
  tail call void @g_free(ptr noundef %8) #11
  %9 = getelementptr inbounds nuw i8, ptr %storemerge4, i64 40
  %10 = load ptr, ptr %9, align 8
  tail call void @g_free(ptr noundef %10) #11
  %11 = getelementptr inbounds nuw i8, ptr %storemerge4, i64 80
  %12 = load ptr, ptr %11, align 8
  tail call void @g_free(ptr noundef %12) #11
  %13 = getelementptr inbounds nuw i8, ptr %storemerge4, i64 96
  %14 = load ptr, ptr %13, align 8
  tail call void @g_free(ptr noundef %14) #11
  %15 = load ptr, ptr @free_ue_cache.a, align 8
  tail call void @g_free(ptr noundef %15) #11
  %storemerge = load ptr, ptr @free_ue_cache.nxt, align 8
  store ptr %storemerge, ptr @free_ue_cache.a, align 8
  %.not = icmp eq ptr %storemerge, null
  br i1 %.not, label %._crit_edge, label %.lr.ph, !llvm.loop !24

._crit_edge:                                      ; preds = %.lr.ph, %1
  store ptr null, ptr %0, align 8
  ret void
}